ARM GAS  /tmp/cch1jD3X.s 			page 1


   1              		.cpu cortex-m4
   2              		.eabi_attribute 27, 1
   3              		.eabi_attribute 28, 1
   4              		.eabi_attribute 20, 1
   5              		.eabi_attribute 21, 1
   6              		.eabi_attribute 23, 3
   7              		.eabi_attribute 24, 1
   8              		.eabi_attribute 25, 1
   9              		.eabi_attribute 26, 1
  10              		.eabi_attribute 30, 2
  11              		.eabi_attribute 34, 1
  12              		.eabi_attribute 18, 4
  13              		.file	"main.c"
  14              		.text
  15              	.Ltext0:
  16              		.cfi_sections	.debug_frame
  17              		.section	.text.ret_prox,"ax",%progbits
  18              		.align	1
  19              		.p2align 4,,15
  20              		.global	ret_prox
  21              		.syntax unified
  22              		.thumb
  23              		.thumb_func
  24              		.fpu fpv4-sp-d16
  25              		.type	ret_prox, %function
  26              	ret_prox:
  27              	.LFB261:
  28              		.file 1 "main.c"
  29              		.loc 1 92 0
  30              		.cfi_startproc
  31              		@ args = 0, pretend = 0, frame = 8
  32              		@ frame_needed = 0, uses_anonymous_args = 0
  33              	.LVL0:
  34 0000 70B5     		push	{r4, r5, r6, lr}
  35              		.cfi_def_cfa_offset 16
  36              		.cfi_offset 4, -16
  37              		.cfi_offset 5, -12
  38              		.cfi_offset 6, -8
  39              		.cfi_offset 14, -4
  40 0002 0B4E     		ldr	r6, .L8
  41 0004 82B0     		sub	sp, sp, #8
  42              		.cfi_def_cfa_offset 24
  43              		.loc 1 92 0
  44 0006 3368     		ldr	r3, [r6]
  45 0008 0193     		str	r3, [sp, #4]
  46              	.LVL1:
  47 000a 051F     		subs	r5, r0, #4
  48              	.LBB5:
  49              		.loc 1 98 0
  50 000c 0024     		movs	r4, #0
  51              	.LVL2:
  52              	.L2:
  53              		.loc 1 99 0 discriminator 3
  54 000e 2046     		mov	r0, r4
  55 0010 FFF7FEFF 		bl	get_calibrated_prox
  56              	.LVL3:
  57              		.loc 1 98 0 discriminator 3
ARM GAS  /tmp/cch1jD3X.s 			page 2


  58 0014 0134     		adds	r4, r4, #1
  59              	.LVL4:
  60 0016 082C     		cmp	r4, #8
  61              		.loc 1 99 0 discriminator 3
  62 0018 45F8040F 		str	r0, [r5, #4]!
  63              		.loc 1 98 0 discriminator 3
  64 001c F7D1     		bne	.L2
  65              	.LBE5:
  66              		.loc 1 104 0
  67 001e 019A     		ldr	r2, [sp, #4]
  68 0020 3368     		ldr	r3, [r6]
  69 0022 9A42     		cmp	r2, r3
  70 0024 01D1     		bne	.L7
  71 0026 02B0     		add	sp, sp, #8
  72              		.cfi_remember_state
  73              		.cfi_def_cfa_offset 16
  74              		@ sp needed
  75 0028 70BD     		pop	{r4, r5, r6, pc}
  76              	.LVL5:
  77              	.L7:
  78              		.cfi_restore_state
  79 002a FFF7FEFF 		bl	__stack_chk_fail
  80              	.LVL6:
  81              	.L9:
  82 002e 00BF     		.align	2
  83              	.L8:
  84 0030 00000000 		.word	__stack_chk_guard
  85              		.cfi_endproc
  86              	.LFE261:
  87              		.size	ret_prox, .-ret_prox
  88              		.section	.text.turn,"ax",%progbits
  89              		.align	1
  90              		.p2align 4,,15
  91              		.global	turn
  92              		.syntax unified
  93              		.thumb
  94              		.thumb_func
  95              		.fpu fpv4-sp-d16
  96              		.type	turn, %function
  97              	turn:
  98              	.LFB263:
  99              		.loc 1 199 0
 100              		.cfi_startproc
 101              		@ args = 0, pretend = 0, frame = 8
 102              		@ frame_needed = 0, uses_anonymous_args = 0
 103              	.LVL7:
 104 0000 2DE9F047 		push	{r4, r5, r6, r7, r8, r9, r10, lr}
 105              		.cfi_def_cfa_offset 32
 106              		.cfi_offset 4, -32
 107              		.cfi_offset 5, -28
 108              		.cfi_offset 6, -24
 109              		.cfi_offset 7, -20
 110              		.cfi_offset 8, -16
 111              		.cfi_offset 9, -12
 112              		.cfi_offset 10, -8
 113              		.cfi_offset 14, -4
 114 0004 2DED028B 		vpush.64	{d8}
ARM GAS  /tmp/cch1jD3X.s 			page 3


 115              		.cfi_def_cfa_offset 40
 116              		.cfi_offset 80, -40
 117              		.cfi_offset 81, -36
 118 0008 DFF8F490 		ldr	r9, .L17+12
 119              		.loc 1 215 0
 120 000c DFF8F480 		ldr	r8, .L17+16
 121              		.loc 1 199 0
 122 0010 D9F80030 		ldr	r3, [r9]
 123 0014 82B0     		sub	sp, sp, #8
 124              		.cfi_def_cfa_offset 48
 125              		.loc 1 199 0
 126 0016 0D46     		mov	r5, r1
 127              		.loc 1 212 0
 128 0018 00FB01F7 		mul	r7, r0, r1
 129              		.loc 1 199 0
 130 001c 0646     		mov	r6, r0
 131              		.loc 1 213 0
 132 001e 6D42     		negs	r5, r5
 133              		.loc 1 199 0
 134 0020 B0EE408A 		vmov.f32	s16, s0
 135 0024 9246     		mov	r10, r2
 136 0026 F0EE608A 		vmov.f32	s17, s1
 137 002a 0193     		str	r3, [sp, #4]
 138              		.loc 1 213 0
 139 002c 06FB05F5 		mul	r5, r6, r5
 140              		.loc 1 210 0
 141 0030 FFF7FEFF 		bl	chSysInit
 142              	.LVL8:
 143              		.loc 1 212 0
 144 0034 3846     		mov	r0, r7
 145 0036 FFF7FEFF 		bl	left_motor_set_speed
 146              	.LVL9:
 147              		.loc 1 213 0
 148 003a 2846     		mov	r0, r5
 149 003c FFF7FEFF 		bl	right_motor_set_speed
 150              	.LVL10:
 151              		.loc 1 215 0
 152 0040 FDEEC87A 		vcvt.s32.f32	s15, s16
 153 0044 2B4B     		ldr	r3, .L17
 154 0046 17EE904A 		vmov	r4, s15	@ int
 155 004a 03FB04F4 		mul	r4, r3, r4
 156 004e 04F2E734 		addw	r4, r4, #999
 157 0052 A8FB0434 		umull	r3, r4, r8, r4
 158 0056 A409     		lsrs	r4, r4, #6
 159 0058 2046     		mov	r0, r4
 160 005a FFF7FEFF 		bl	chThdSleep
 161              	.LVL11:
 162              		.loc 1 217 0
 163 005e 3046     		mov	r0, r6
 164 0060 FFF7FEFF 		bl	left_motor_set_speed
 165              	.LVL12:
 166              		.loc 1 218 0
 167 0064 3046     		mov	r0, r6
 168 0066 FFF7FEFF 		bl	right_motor_set_speed
 169              	.LVL13:
 170              		.loc 1 220 0
 171 006a BAF1000F 		cmp	r10, #0
ARM GAS  /tmp/cch1jD3X.s 			page 4


 172 006e 09D1     		bne	.L16
 173              		.loc 1 231 0
 174 0070 019A     		ldr	r2, [sp, #4]
 175 0072 D9F80030 		ldr	r3, [r9]
 176 0076 9A42     		cmp	r2, r3
 177 0078 3AD1     		bne	.L15
 178 007a 02B0     		add	sp, sp, #8
 179              		.cfi_remember_state
 180              		.cfi_def_cfa_offset 40
 181              		@ sp needed
 182 007c BDEC028B 		vldm	sp!, {d8}
 183              		.cfi_restore 80
 184              		.cfi_restore 81
 185              		.cfi_def_cfa_offset 32
 186              	.LVL14:
 187 0080 BDE8F087 		pop	{r4, r5, r6, r7, r8, r9, r10, pc}
 188              	.LVL15:
 189              	.L16:
 190              		.cfi_restore_state
 191              		.loc 1 221 0
 192 0084 07EE906A 		vmov	s15, r6	@ int
 193 0088 B8EEE77A 		vcvt.f32.s32	s14, s15
 194 008c DFED1A7A 		vldr.32	s15, .L17+4
 195 0090 DFED1A6A 		vldr.32	s13, .L17+8
 196 0094 27EE277A 		vmul.f32	s14, s14, s15
 197 0098 4FF47A73 		mov	r3, #1000
 198 009c C8EE877A 		vdiv.f32	s15, s17, s14
 199 00a0 67EEA67A 		vmul.f32	s15, s15, s13
 200 00a4 FDEEE77A 		vcvt.s32.f32	s15, s15
 201 00a8 17EE900A 		vmov	r0, s15	@ int
 202 00ac 03FB00F0 		mul	r0, r3, r0
 203 00b0 00F2E730 		addw	r0, r0, #999
 204 00b4 A8FB0030 		umull	r3, r0, r8, r0
 205 00b8 8009     		lsrs	r0, r0, #6
 206 00ba FFF7FEFF 		bl	chThdSleep
 207              	.LVL16:
 208              		.loc 1 223 0
 209 00be 3846     		mov	r0, r7
 210 00c0 FFF7FEFF 		bl	left_motor_set_speed
 211              	.LVL17:
 212              		.loc 1 224 0
 213 00c4 2846     		mov	r0, r5
 214 00c6 FFF7FEFF 		bl	right_motor_set_speed
 215              	.LVL18:
 216              		.loc 1 226 0
 217 00ca 2046     		mov	r0, r4
 218 00cc FFF7FEFF 		bl	chThdSleep
 219              	.LVL19:
 220              		.loc 1 228 0
 221 00d0 3046     		mov	r0, r6
 222 00d2 FFF7FEFF 		bl	left_motor_set_speed
 223              	.LVL20:
 224              		.loc 1 229 0
 225 00d6 019A     		ldr	r2, [sp, #4]
 226 00d8 D9F80030 		ldr	r3, [r9]
 227 00dc 9A42     		cmp	r2, r3
 228 00de 07D1     		bne	.L15
ARM GAS  /tmp/cch1jD3X.s 			page 5


 229 00e0 3046     		mov	r0, r6
 230              		.loc 1 231 0
 231 00e2 02B0     		add	sp, sp, #8
 232              		.cfi_remember_state
 233              		.cfi_def_cfa_offset 40
 234              		@ sp needed
 235 00e4 BDEC028B 		vldm	sp!, {d8}
 236              		.cfi_restore 80
 237              		.cfi_restore 81
 238              		.cfi_def_cfa_offset 32
 239              	.LVL21:
 240 00e8 BDE8F047 		pop	{r4, r5, r6, r7, r8, r9, r10, lr}
 241              		.cfi_restore 14
 242              		.cfi_restore 10
 243              		.cfi_restore 9
 244              		.cfi_restore 8
 245              		.cfi_restore 7
 246              		.cfi_restore 6
 247              		.cfi_restore 5
 248              		.cfi_restore 4
 249              		.cfi_def_cfa_offset 0
 250              	.LVL22:
 251              		.loc 1 229 0
 252 00ec FFF7FEBF 		b	right_motor_set_speed
 253              	.LVL23:
 254              	.L15:
 255              		.cfi_restore_state
 256              		.loc 1 231 0
 257 00f0 FFF7FEFF 		bl	__stack_chk_fail
 258              	.LVL24:
 259              	.L18:
 260              		.align	2
 261              	.L17:
 262 00f4 40420F00 		.word	1000000
 263 00f8 C1DE8142 		.word	1115807425
 264 00fc 00007A44 		.word	1148846080
 265 0100 00000000 		.word	__stack_chk_guard
 266 0104 D34D6210 		.word	274877907
 267              		.cfi_endproc
 268              	.LFE263:
 269              		.size	turn, .-turn
 270              		.section	.text.motor_control,"ax",%progbits
 271              		.align	1
 272              		.p2align 4,,15
 273              		.global	motor_control
 274              		.syntax unified
 275              		.thumb
 276              		.thumb_func
 277              		.fpu fpv4-sp-d16
 278              		.type	motor_control, %function
 279              	motor_control:
 280              	.LFB262:
 281              		.loc 1 106 0
 282              		.cfi_startproc
 283              		@ args = 0, pretend = 0, frame = 8
 284              		@ frame_needed = 0, uses_anonymous_args = 0
 285              	.LVL25:
ARM GAS  /tmp/cch1jD3X.s 			page 6


 286 0000 70B5     		push	{r4, r5, r6, lr}
 287              		.cfi_def_cfa_offset 16
 288              		.cfi_offset 4, -16
 289              		.cfi_offset 5, -12
 290              		.cfi_offset 6, -8
 291              		.cfi_offset 14, -4
 292 0002 404D     		ldr	r5, .L44
 293 0004 82B0     		sub	sp, sp, #8
 294              		.cfi_def_cfa_offset 24
 295              		.loc 1 106 0
 296 0006 2B68     		ldr	r3, [r5]
 297 0008 0193     		str	r3, [sp, #4]
 298              	.LVL26:
 299 000a 0E46     		mov	r6, r1
 300              		.loc 1 121 0
 301 000c 0328     		cmp	r0, #3
 302 000e 5FD8     		bhi	.L19
 303 0010 DFE800F0 		tbb	[pc, r0]
 304              	.L22:
 305 0014 43       		.byte	(.L21-.L22)/2
 306 0015 2D       		.byte	(.L23-.L22)/2
 307 0016 11       		.byte	(.L24-.L22)/2
 308 0017 02       		.byte	(.L25-.L22)/2
 309              		.p2align 1
 310              	.L25:
 311              	.LBB6:
 312              		.loc 1 193 0
 313 0018 40F20720 		movw	r0, #519
 314              	.LVL27:
 315 001c FFF7FEFF 		bl	left_motor_set_speed
 316              	.LVL28:
 317              		.loc 1 194 0
 318 0020 019A     		ldr	r2, [sp, #4]
 319 0022 2B68     		ldr	r3, [r5]
 320 0024 9A42     		cmp	r2, r3
 321 0026 36D1     		bne	.L40
 322 0028 40F20720 		movw	r0, #519
 323              	.LBE6:
 324              		.loc 1 197 0
 325 002c 02B0     		add	sp, sp, #8
 326              		.cfi_remember_state
 327              		.cfi_def_cfa_offset 16
 328              		@ sp needed
 329 002e BDE87040 		pop	{r4, r5, r6, lr}
 330              		.cfi_restore 14
 331              		.cfi_restore 6
 332              		.cfi_restore 5
 333              		.cfi_restore 4
 334              		.cfi_def_cfa_offset 0
 335              	.LVL29:
 336              	.LBB11:
 337              		.loc 1 194 0
 338 0032 FFF7FEBF 		b	right_motor_set_speed
 339              	.LVL30:
 340              	.L24:
 341              		.cfi_restore_state
 342              		.loc 1 168 0
ARM GAS  /tmp/cch1jD3X.s 			page 7


 343 0036 0020     		movs	r0, #0
 344              	.LVL31:
 345 0038 FFF7FEFF 		bl	left_motor_set_speed
 346              	.LVL32:
 347              		.loc 1 169 0
 348 003c 0020     		movs	r0, #0
 349 003e FFF7FEFF 		bl	right_motor_set_speed
 350              	.LVL33:
 351              		.loc 1 171 0
 352 0042 3368     		ldr	r3, [r6]
 353 0044 002B     		cmp	r3, #0
 354 0046 49D0     		beq	.L41
 355              	.LVL34:
 356              	.LBB7:
 357              		.loc 1 181 0
 358 0048 0023     		movs	r3, #0
 359              		.loc 1 184 0
 360 004a 9FED2F0A 		vldr.32	s0, .L44+4
 361              		.loc 1 181 0
 362 004e 3360     		str	r3, [r6]
 363              	.LVL35:
 364              		.loc 1 180 0
 365 0050 0121     		movs	r1, #1
 366              	.LVL36:
 367              	.L33:
 368              	.LBE7:
 369              		.loc 1 189 0
 370 0052 019A     		ldr	r2, [sp, #4]
 371 0054 2B68     		ldr	r3, [r5]
 372 0056 9A42     		cmp	r2, r3
 373 0058 1DD1     		bne	.L40
 374              	.LVL37:
 375              	.L39:
 376              		.loc 1 164 0
 377 005a DFED2C0A 		vldr.32	s1, .L44+8
 378 005e 0022     		movs	r2, #0
 379 0060 40F20720 		movw	r0, #519
 380              	.LBE11:
 381              		.loc 1 197 0
 382 0064 02B0     		add	sp, sp, #8
 383              		.cfi_remember_state
 384              		.cfi_def_cfa_offset 16
 385              		@ sp needed
 386 0066 BDE87040 		pop	{r4, r5, r6, lr}
 387              		.cfi_restore 14
 388              		.cfi_restore 6
 389              		.cfi_restore 5
 390              		.cfi_restore 4
 391              		.cfi_def_cfa_offset 0
 392              	.LVL38:
 393              	.LBB12:
 394              		.loc 1 164 0
 395 006a FFF7FEBF 		b	turn
 396              	.LVL39:
 397              	.L23:
 398              		.cfi_restore_state
 399 006e 0446     		mov	r4, r0
ARM GAS  /tmp/cch1jD3X.s 			page 8


 400              		.loc 1 143 0
 401 0070 0020     		movs	r0, #0
 402              	.LVL40:
 403 0072 FFF7FEFF 		bl	left_motor_set_speed
 404              	.LVL41:
 405              		.loc 1 144 0
 406 0076 0020     		movs	r0, #0
 407 0078 FFF7FEFF 		bl	right_motor_set_speed
 408              	.LVL42:
 409              		.loc 1 146 0
 410 007c 3368     		ldr	r3, [r6]
 411 007e 002B     		cmp	r3, #0
 412 0080 38D0     		beq	.L42
 413              	.LVL43:
 414              	.LBB8:
 415              		.loc 1 156 0
 416 0082 0023     		movs	r3, #0
 417              		.loc 1 159 0
 418 0084 9FED220A 		vldr.32	s0, .L44+12
 419              		.loc 1 156 0
 420 0088 3360     		str	r3, [r6]
 421              	.LVL44:
 422              	.L30:
 423              	.LBE8:
 424              		.loc 1 164 0
 425 008a 019A     		ldr	r2, [sp, #4]
 426 008c 2B68     		ldr	r3, [r5]
 427 008e 9A42     		cmp	r2, r3
 428 0090 08BF     		it	eq
 429 0092 2146     		moveq	r1, r4
 430 0094 E1D0     		beq	.L39
 431              	.LVL45:
 432              	.L40:
 433              	.LBE12:
 434              		.loc 1 197 0
 435 0096 FFF7FEFF 		bl	__stack_chk_fail
 436              	.LVL46:
 437              	.L21:
 438              	.LBB13:
 439              		.loc 1 123 0
 440 009a 0020     		movs	r0, #0
 441              	.LVL47:
 442 009c FFF7FEFF 		bl	left_motor_set_speed
 443              	.LVL48:
 444              		.loc 1 124 0
 445 00a0 0020     		movs	r0, #0
 446 00a2 FFF7FEFF 		bl	right_motor_set_speed
 447              	.LVL49:
 448              		.loc 1 125 0
 449 00a6 3368     		ldr	r3, [r6]
 450 00a8 FBB1     		cbz	r3, .L43
 451              	.LVL50:
 452              		.loc 1 131 0
 453 00aa 0023     		movs	r3, #0
 454 00ac 3360     		str	r3, [r6]
 455              		.loc 1 130 0
 456 00ae 0121     		movs	r1, #1
ARM GAS  /tmp/cch1jD3X.s 			page 9


 457              	.LVL51:
 458              	.L27:
 459              		.loc 1 139 0
 460 00b0 019A     		ldr	r2, [sp, #4]
 461 00b2 2B68     		ldr	r3, [r5]
 462 00b4 9A42     		cmp	r2, r3
 463 00b6 EED1     		bne	.L40
 464 00b8 DFED140A 		vldr.32	s1, .L44+8
 465 00bc 9FED120A 		vldr.32	s0, .L44+4
 466 00c0 0122     		movs	r2, #1
 467              		.loc 1 164 0
 468 00c2 40F20720 		movw	r0, #519
 469              	.LBE13:
 470              		.loc 1 197 0
 471 00c6 02B0     		add	sp, sp, #8
 472              		.cfi_remember_state
 473              		.cfi_def_cfa_offset 16
 474              		@ sp needed
 475 00c8 BDE87040 		pop	{r4, r5, r6, lr}
 476              		.cfi_restore 14
 477              		.cfi_restore 6
 478              		.cfi_restore 5
 479              		.cfi_restore 4
 480              		.cfi_def_cfa_offset 0
 481              	.LVL52:
 482              	.LBB14:
 483              		.loc 1 164 0
 484 00cc FFF7FEBF 		b	turn
 485              	.LVL53:
 486              	.L19:
 487              	.LBE14:
 488              		.loc 1 197 0
 489 00d0 019A     		ldr	r2, [sp, #4]
 490 00d2 2B68     		ldr	r3, [r5]
 491 00d4 9A42     		cmp	r2, r3
 492 00d6 DED1     		bne	.L40
 493 00d8 02B0     		add	sp, sp, #8
 494              		@ sp needed
 495 00da 70BD     		pop	{r4, r5, r6, pc}
 496              	.LVL54:
 497              	.L41:
 498              		.cfi_restore_state
 499              	.LBB15:
 500              	.LBB9:
 501              		.loc 1 173 0
 502 00dc 0123     		movs	r3, #1
 503 00de 3360     		str	r3, [r6]
 504              	.LVL55:
 505              		.loc 1 176 0
 506 00e0 9FED0B0A 		vldr.32	s0, .L44+12
 507              		.loc 1 172 0
 508 00e4 4FF0FF31 		mov	r1, #-1
 509              	.LBE9:
 510 00e8 B3E7     		b	.L33
 511              	.LVL56:
 512              	.L43:
 513              		.loc 1 127 0
ARM GAS  /tmp/cch1jD3X.s 			page 10


 514 00ea 0123     		movs	r3, #1
 515 00ec 3360     		str	r3, [r6]
 516              		.loc 1 126 0
 517 00ee 4FF0FF31 		mov	r1, #-1
 518 00f2 DDE7     		b	.L27
 519              	.LVL57:
 520              	.L42:
 521              	.LBB10:
 522              		.loc 1 148 0
 523 00f4 0123     		movs	r3, #1
 524 00f6 3360     		str	r3, [r6]
 525              	.LVL58:
 526              		.loc 1 151 0
 527 00f8 9FED030A 		vldr.32	s0, .L44+4
 528              		.loc 1 147 0
 529 00fc 4FF0FF34 		mov	r4, #-1
 530              	.LVL59:
 531              	.LBE10:
 532 0100 C3E7     		b	.L30
 533              	.L45:
 534 0102 00BF     		.align	2
 535              	.L44:
 536 0104 00000000 		.word	__stack_chk_guard
 537 0108 5338E540 		.word	1088763987
 538 010c 9A99E940 		.word	1089051034
 539 0110 53386541 		.word	1097152595
 540              	.LBE15:
 541              		.cfi_endproc
 542              	.LFE262:
 543              		.size	motor_control, .-motor_control
 544              		.section	.text.startup.main,"ax",%progbits
 545              		.align	1
 546              		.p2align 4,,15
 547              		.global	main
 548              		.syntax unified
 549              		.thumb
 550              		.thumb_func
 551              		.fpu fpv4-sp-d16
 552              		.type	main, %function
 553              	main:
 554              	.LFB260:
 555              		.loc 1 37 0
 556              		.cfi_startproc
 557              		@ args = 0, pretend = 0, frame = 40
 558              		@ frame_needed = 0, uses_anonymous_args = 0
 559 0000 F0B5     		push	{r4, r5, r6, r7, lr}
 560              		.cfi_def_cfa_offset 20
 561              		.cfi_offset 4, -20
 562              		.cfi_offset 5, -16
 563              		.cfi_offset 6, -12
 564              		.cfi_offset 7, -8
 565              		.cfi_offset 14, -4
 566 0002 1B4B     		ldr	r3, .L54
 567 0004 8BB0     		sub	sp, sp, #44
 568              		.cfi_def_cfa_offset 64
 569              		.loc 1 37 0
 570 0006 1B68     		ldr	r3, [r3]
ARM GAS  /tmp/cch1jD3X.s 			page 11


 571 0008 0993     		str	r3, [sp, #36]
 572              		.loc 1 40 0
 573 000a FFF7FEFF 		bl	halInit
 574              	.LVL60:
 575              		.loc 1 41 0
 576 000e FFF7FEFF 		bl	chSysInit
 577              	.LVL61:
 578              		.loc 1 42 0
 579 0012 FFF7FEFF 		bl	mpu_init
 580              	.LVL62:
 581              		.loc 1 43 0
 582 0016 FFF7FEFF 		bl	motors_init
 583              	.LVL63:
 584              		.loc 1 44 0
 585 001a 164A     		ldr	r2, .L54+4
 586 001c 1649     		ldr	r1, .L54+8
 587 001e 1748     		ldr	r0, .L54+12
 588 0020 FFF7FEFF 		bl	messagebus_init
 589              	.LVL64:
 590              		.loc 1 54 0
 591 0024 0AAE     		add	r6, sp, #40
 592              		.loc 1 45 0
 593 0026 FFF7FEFF 		bl	serial_start
 594              	.LVL65:
 595              		.loc 1 46 0
 596 002a 0020     		movs	r0, #0
 597 002c FFF7FEFF 		bl	proximity_start
 598              	.LVL66:
 599              		.loc 1 47 0
 600 0030 FFF7FEFF 		bl	calibrate_ir
 601              	.LVL67:
 602              		.loc 1 48 0
 603 0034 FFF7FEFF 		bl	clear_leds
 604              	.LVL68:
 605              		.loc 1 49 0
 606 0038 FFF7FEFF 		bl	spi_comm_start
 607              	.LVL69:
 608              		.loc 1 50 0
 609 003c FFF7FEFF 		bl	VL53L0X_start
 610              	.LVL70:
 611              		.loc 1 54 0
 612 0040 0023     		movs	r3, #0
 613 0042 46F8283D 		str	r3, [r6, #-40]!
 614              	.LVL71:
 615              	.L49:
 616              		.loc 1 69 0
 617 0046 FFF7FEFF 		bl	VL53L0X_get_dist_mm
 618              	.LVL72:
 619 004a 3546     		mov	r5, r6
 620 004c 0746     		mov	r7, r0
 621              	.LVL73:
 622              	.LBB16:
 623              	.LBB17:
 624              		.loc 1 98 0
 625 004e 0024     		movs	r4, #0
 626              	.LVL74:
 627              	.L47:
ARM GAS  /tmp/cch1jD3X.s 			page 12


 628              		.loc 1 99 0
 629 0050 2046     		mov	r0, r4
 630 0052 FFF7FEFF 		bl	get_calibrated_prox
 631              	.LVL75:
 632              		.loc 1 98 0
 633 0056 0134     		adds	r4, r4, #1
 634              	.LVL76:
 635 0058 082C     		cmp	r4, #8
 636              		.loc 1 99 0
 637 005a 45F8040F 		str	r0, [r5, #4]!
 638              		.loc 1 98 0
 639 005e F7D1     		bne	.L47
 640              	.LVL77:
 641              	.LBE17:
 642              	.LBE16:
 643              		.loc 1 83 0
 644 0060 1F2F     		cmp	r7, #31
 645              	.LVL78:
 646              		.loc 1 86 0
 647 0062 2CBF     		ite	cs
 648 0064 0320     		movcs	r0, #3
 649 0066 0020     		movcc	r0, #0
 650 0068 3146     		mov	r1, r6
 651 006a FFF7FEFF 		bl	motor_control
 652              	.LVL79:
 653              		.loc 1 69 0
 654 006e EAE7     		b	.L49
 655              	.L55:
 656              		.align	2
 657              	.L54:
 658 0070 00000000 		.word	__stack_chk_guard
 659 0074 00000000 		.word	.LANCHOR0
 660 0078 00000000 		.word	.LANCHOR1
 661 007c 00000000 		.word	.LANCHOR2
 662              		.cfi_endproc
 663              	.LFE260:
 664              		.size	main, .-main
 665              		.section	.text.emg_adj,"ax",%progbits
 666              		.align	1
 667              		.p2align 4,,15
 668              		.global	emg_adj
 669              		.syntax unified
 670              		.thumb
 671              		.thumb_func
 672              		.fpu fpv4-sp-d16
 673              		.type	emg_adj, %function
 674              	emg_adj:
 675              	.LFB264:
 676              		.loc 1 233 0
 677              		.cfi_startproc
 678              		@ args = 0, pretend = 0, frame = 8
 679              		@ frame_needed = 0, uses_anonymous_args = 0
 680 0000 00B5     		push	{lr}
 681              		.cfi_def_cfa_offset 4
 682              		.cfi_offset 14, -4
 683 0002 064B     		ldr	r3, .L60
 684 0004 83B0     		sub	sp, sp, #12
ARM GAS  /tmp/cch1jD3X.s 			page 13


 685              		.cfi_def_cfa_offset 16
 686              		.loc 1 233 0
 687 0006 1A68     		ldr	r2, [r3]
 688 0008 0192     		str	r2, [sp, #4]
 689              		.loc 1 240 0
 690 000a 019A     		ldr	r2, [sp, #4]
 691 000c 1B68     		ldr	r3, [r3]
 692 000e 9A42     		cmp	r2, r3
 693 0010 02D1     		bne	.L59
 694 0012 03B0     		add	sp, sp, #12
 695              		.cfi_remember_state
 696              		.cfi_def_cfa_offset 4
 697              		@ sp needed
 698 0014 5DF804FB 		ldr	pc, [sp], #4
 699              	.L59:
 700              		.cfi_restore_state
 701 0018 FFF7FEFF 		bl	__stack_chk_fail
 702              	.LVL80:
 703              	.L61:
 704              		.align	2
 705              	.L60:
 706 001c 00000000 		.word	__stack_chk_guard
 707              		.cfi_endproc
 708              	.LFE264:
 709              		.size	emg_adj, .-emg_adj
 710              		.section	.text.__stack_chk_fail,"ax",%progbits
 711              		.align	1
 712              		.p2align 4,,15
 713              		.global	__stack_chk_fail
 714              		.syntax unified
 715              		.thumb
 716              		.thumb_func
 717              		.fpu fpv4-sp-d16
 718              		.type	__stack_chk_fail, %function
 719              	__stack_chk_fail:
 720              	.LFB265:
 721              		.loc 1 247 0
 722              		.cfi_startproc
 723              		@ args = 0, pretend = 0, frame = 8
 724              		@ frame_needed = 0, uses_anonymous_args = 0
 725 0000 00B5     		push	{lr}
 726              		.cfi_def_cfa_offset 4
 727              		.cfi_offset 14, -4
 728 0002 084B     		ldr	r3, .L67
 729 0004 83B0     		sub	sp, sp, #12
 730              		.cfi_def_cfa_offset 16
 731              		.loc 1 247 0
 732 0006 1A68     		ldr	r2, [r3]
 733 0008 0192     		str	r2, [sp, #4]
 734              		.loc 1 248 0
 735 000a 019A     		ldr	r2, [sp, #4]
 736 000c 1B68     		ldr	r3, [r3]
 737 000e 9A42     		cmp	r2, r3
 738 0010 05D1     		bne	.L66
 739 0012 0548     		ldr	r0, .L67+4
 740              		.loc 1 249 0
 741 0014 03B0     		add	sp, sp, #12
ARM GAS  /tmp/cch1jD3X.s 			page 14


 742              		.cfi_remember_state
 743              		.cfi_def_cfa_offset 4
 744              		@ sp needed
 745 0016 5DF804EB 		ldr	lr, [sp], #4
 746              		.cfi_restore 14
 747              		.cfi_def_cfa_offset 0
 748              		.loc 1 248 0
 749 001a FFF7FEBF 		b	chSysHalt
 750              	.LVL81:
 751              	.L66:
 752              		.cfi_restore_state
 753 001e FFF7FEFF 		bl	__stack_chk_fail
 754              	.LVL82:
 755              	.L68:
 756 0022 00BF     		.align	2
 757              	.L67:
 758 0024 00000000 		.word	__stack_chk_guard
 759 0028 00000000 		.word	.LC0
 760              		.cfi_endproc
 761              	.LFE265:
 762              		.size	__stack_chk_fail, .-__stack_chk_fail
 763              		.global	__stack_chk_guard
 764              		.global	bus_condvar
 765              		.global	bus_lock
 766              		.global	bus
 767              		.section	.bss.bus,"aw",%nobits
 768              		.align	2
 769              		.set	.LANCHOR2,. + 0
 770              		.type	bus, %object
 771              		.size	bus, 12
 772              	bus:
 773 0000 00000000 		.space	12
 773      00000000 
 773      00000000 
 774              		.section	.data.__stack_chk_guard,"aw",%progbits
 775              		.align	2
 776              		.type	__stack_chk_guard, %object
 777              		.size	__stack_chk_guard, 4
 778              	__stack_chk_guard:
 779 0000 96E3DEE2 		.word	-488709226
 780              		.section	.data.bus_condvar,"aw",%progbits
 781              		.align	2
 782              		.set	.LANCHOR0,. + 0
 783              		.type	bus_condvar, %object
 784              		.size	bus_condvar, 8
 785              	bus_condvar:
 786 0000 00000000 		.word	bus_condvar
 787 0004 00000000 		.word	bus_condvar
 788              		.section	.data.bus_lock,"aw",%progbits
 789              		.align	2
 790              		.set	.LANCHOR1,. + 0
 791              		.type	bus_lock, %object
 792              		.size	bus_lock, 20
 793              	bus_lock:
 794 0000 00000000 		.word	bus_lock
 795 0004 00000000 		.word	bus_lock
 796 0008 00000000 		.word	0
ARM GAS  /tmp/cch1jD3X.s 			page 15


 797 000c 00000000 		.word	0
 798 0010 00000000 		.word	0
 799              		.section	.rodata.__stack_chk_fail.str1.4,"aMS",%progbits,1
 800              		.align	2
 801              	.LC0:
 802 0000 53746163 		.ascii	"Stack smashing detected\000"
 802      6B20736D 
 802      61736869 
 802      6E672064 
 802      65746563 
 803              		.text
 804              	.Letext0:
 805              		.file 2 "/home/uos/Epuck_ACS337/Eclipse_e-puck2/Tools/gcc-arm-none-eabi-7-2017-q4-major/arm-none-e
 806              		.file 3 "/home/uos/Epuck_ACS337/Eclipse_e-puck2/Tools/gcc-arm-none-eabi-7-2017-q4-major/lib/gcc/ar
 807              		.file 4 "/home/uos/Epuck_ACS337/Eclipse_e-puck2/Tools/gcc-arm-none-eabi-7-2017-q4-major/arm-none-e
 808              		.file 5 "/home/uos/Epuck_ACS337/Eclipse_e-puck2/Tools/gcc-arm-none-eabi-7-2017-q4-major/arm-none-e
 809              		.file 6 "/home/uos/Epuck_ACS337/Eclipse_e-puck2/Tools/gcc-arm-none-eabi-7-2017-q4-major/arm-none-e
 810              		.file 7 "/home/uos/Epuck_ACS337/Eclipse_e-puck2/Tools/gcc-arm-none-eabi-7-2017-q4-major/arm-none-e
 811              		.file 8 "/home/uos/Epuck_ACS337/Eclipse_e-puck2/Tools/gcc-arm-none-eabi-7-2017-q4-major/arm-none-e
 812              		.file 9 "/home/uos/Epuck_ACS337/Eclipse_e-puck2/Tools/gcc-arm-none-eabi-7-2017-q4-major/arm-none-e
 813              		.file 10 "../e-puck2_main-processor/ChibiOS//os/rt/ports/ARMCMx/compilers/GCC/chtypes.h"
 814              		.file 11 "../e-puck2_main-processor/ChibiOS//os/rt/include/chsystypes.h"
 815              		.file 12 "../e-puck2_main-processor/ChibiOS//os/rt/include/chschd.h"
 816              		.file 13 "../e-puck2_main-processor/ChibiOS//os/ext/CMSIS/include/core_cm4.h"
 817              		.file 14 "../e-puck2_main-processor/ChibiOS//os/ext/CMSIS/ST/system_stm32f4xx.h"
 818              		.file 15 "../e-puck2_main-processor/ChibiOS//os/ext/CMSIS/ST/stm32f407xx.h"
 819              		.file 16 "../e-puck2_main-processor/ChibiOS//os/rt/ports/ARMCMx/chcore.h"
 820              		.file 17 "../e-puck2_main-processor/ChibiOS//os/rt/ports/ARMCMx/chcore_v7m.h"
 821              		.file 18 "../e-puck2_main-processor/ChibiOS//os/rt/include/chdebug.h"
 822              		.file 19 "../e-puck2_main-processor/ChibiOS//os/rt/include/chtm.h"
 823              		.file 20 "../e-puck2_main-processor/ChibiOS//os/rt/include/chstats.h"
 824              		.file 21 "../e-puck2_main-processor/ChibiOS//os/rt/include/chsem.h"
 825              		.file 22 "../e-puck2_main-processor/ChibiOS//os/rt/include/chmtx.h"
 826              		.file 23 "../e-puck2_main-processor/ChibiOS//os/rt/include/chregistry.h"
 827              		.file 24 "../e-puck2_main-processor/ChibiOS//os/rt/include/chcond.h"
 828              		.file 25 "../e-puck2_main-processor/ChibiOS//os/rt/include/chevents.h"
 829              		.file 26 "../e-puck2_main-processor/ChibiOS//os/rt/include/chqueues.h"
 830              		.file 27 "../e-puck2_main-processor/ChibiOS//os/hal/ports/STM32/STM32F4xx/stm32_dma.h"
 831              		.file 28 "../e-puck2_main-processor/ChibiOS//os/hal/include/hal_ioblock.h"
 832              		.file 29 "../e-puck2_main-processor/ChibiOS//os/hal/ports/STM32/LLD/GPIOv2/pal_lld.h"
 833              		.file 30 "../e-puck2_main-processor/ChibiOS//os/hal/include/adc.h"
 834              		.file 31 "../e-puck2_main-processor/ChibiOS//os/hal/ports/STM32/STM32F4xx/adc_lld.h"
 835              		.file 32 "../e-puck2_main-processor/ChibiOS//os/hal/include/can.h"
 836              		.file 33 "../e-puck2_main-processor/ChibiOS//os/hal/ports/STM32/LLD/can_lld.h"
 837              		.file 34 "../e-puck2_main-processor/ChibiOS//os/hal/include/dac.h"
 838              		.file 35 "../e-puck2_main-processor/ChibiOS//os/hal/ports/STM32/LLD/DACv1/dac_lld.h"
 839              		.file 36 "../e-puck2_main-processor/ChibiOS//os/hal/include/ext.h"
 840              		.file 37 "../e-puck2_main-processor/ChibiOS//os/hal/ports/STM32/LLD/ext_lld.h"
 841              		.file 38 "../e-puck2_main-processor/ChibiOS//os/hal/include/gpt.h"
 842              		.file 39 "../e-puck2_main-processor/ChibiOS//os/hal/ports/STM32/LLD/TIMv1/gpt_lld.h"
 843              		.file 40 "../e-puck2_main-processor/ChibiOS//os/hal/ports/STM32/LLD/TIMv1/stm32_tim.h"
 844              		.file 41 "../e-puck2_main-processor/ChibiOS//os/hal/include/i2c.h"
 845              		.file 42 "../e-puck2_main-processor/ChibiOS//os/hal/ports/STM32/LLD/I2Cv1/i2c_lld.h"
 846              		.file 43 "../e-puck2_main-processor/ChibiOS//os/hal/include/i2s.h"
 847              		.file 44 "../e-puck2_main-processor/ChibiOS//os/hal/ports/STM32/LLD/SPIv1/i2s_lld.h"
 848              		.file 45 "../e-puck2_main-processor/ChibiOS//os/hal/include/pwm.h"
 849              		.file 46 "../e-puck2_main-processor/ChibiOS//os/hal/ports/STM32/LLD/TIMv1/pwm_lld.h"
ARM GAS  /tmp/cch1jD3X.s 			page 16


 850              		.file 47 "../e-puck2_main-processor/ChibiOS//os/hal/include/serial.h"
 851              		.file 48 "../e-puck2_main-processor/ChibiOS//os/hal/ports/STM32/LLD/USARTv1/serial_lld.h"
 852              		.file 49 "../e-puck2_main-processor/ChibiOS//os/hal/include/sdc.h"
 853              		.file 50 "../e-puck2_main-processor/ChibiOS//os/hal/ports/STM32/LLD/sdc_lld.h"
 854              		.file 51 "../e-puck2_main-processor/ChibiOS//os/hal/include/spi.h"
 855              		.file 52 "../e-puck2_main-processor/ChibiOS//os/hal/ports/STM32/LLD/SPIv1/spi_lld.h"
 856              		.file 53 "../e-puck2_main-processor/ChibiOS//os/hal/include/usb.h"
 857              		.file 54 "../e-puck2_main-processor/ChibiOS//os/hal/ports/STM32/LLD/OTGv1/usb_lld.h"
 858              		.file 55 "../e-puck2_main-processor/ChibiOS//os/hal/ports/STM32/LLD/OTGv1/stm32_otg.h"
 859              		.file 56 "../e-puck2_main-processor/ChibiOS//os/hal/include/serial_usb.h"
 860              		.file 57 "/home/uos/Epuck_ACS337/Eclipse_e-puck2/Tools/gcc-arm-none-eabi-7-2017-q4-major/arm-none-
 861              		.file 58 "../e-puck2_main-processor/src/msgbus/messagebus.h"
 862              		.file 59 "../e-puck2_main-processor/src/parameter/parameter.h"
 863              		.file 60 "./main.h"
 864              		.file 61 "../e-puck2_main-processor/src/motors.h"
 865              		.file 62 "../e-puck2_main-processor/src/usbcfg.h"
 866              		.file 63 "../e-puck2_main-processor/ChibiOS//os/rt/include/chsys.h"
 867              		.file 64 "../e-puck2_main-processor/ChibiOS//os/rt/include/chthreads.h"
 868              		.file 65 "../e-puck2_main-processor/src/sensors/proximity.h"
 869              		.file 66 "../e-puck2_main-processor/ChibiOS//os/hal/include/hal.h"
 870              		.file 67 "../e-puck2_main-processor/src/memory_protection.h"
 871              		.file 68 "../e-puck2_main-processor/src/serial_comm.h"
 872              		.file 69 "../e-puck2_main-processor/src/sensors/VL53L0X/VL53L0X.h"